target datalayout = "e-m:e-p270:32:32-p271:32:32-p272:64:64-i64:64-i128:128-f80:128-n8:16:32:64-S128"
target triple = "x86_64-pc-linux-gnu"

%struct.ScanKeyData = type { i32, i16, i16, i32, i32, %struct.FmgrInfo, i64 }
%struct.FmgrInfo = type { ptr, i32, i16, i8, i8, i8, ptr, ptr, ptr }
%struct.RelationData = type { %struct.RelFileLocator, ptr, i32, i32, i8, i8, i8, i8, i8, i32, i32, i32, i32, ptr, ptr, i32, %struct.LockInfoData, ptr, ptr, ptr, ptr, ptr, i8, ptr, ptr, ptr, ptr, ptr, ptr, i32, ptr, i8, ptr, ptr, i32, i8, i32, ptr, i8, ptr, ptr, ptr, ptr, ptr, ptr, ptr, i32, ptr, ptr, ptr, ptr, ptr, ptr, ptr, ptr, ptr, ptr, ptr, ptr, ptr, ptr, ptr, ptr, ptr, ptr, ptr, i32, i8, ptr }
%struct.RelFileLocator = type { i32, i32, i32 }
%struct.LockInfoData = type { %struct.LockRelId }
%struct.LockRelId = type { i32, i32 }

@.str.1 = private unnamed_addr constant [9 x i8] c"aclchk.c\00", align 1
@.str.101 = private unnamed_addr constant [30 x i8] c"cache lookup failed for %s %u\00", align 1
@__func__.object_ownercheck = private unnamed_addr constant [18 x i8] c"object_ownercheck\00", align 1
@.str.102 = private unnamed_addr constant [31 x i8] c"could not find tuple for %s %u\00", align 1

; Function Attrs: inlinehint nounwind uwtable
define internal i32 @DatumGetObjectId(i64 noundef %0) #7 {
  %2 = alloca i64, align 8
  store i64 %0, ptr %2, align 8
  %3 = load i64, ptr %2, align 8
  %4 = trunc i64 %3 to i32
  ret i32 %4
}

; Function Attrs: inlinehint nounwind uwtable
define internal i64 @ObjectIdGetDatum(i32 noundef %0) #7 {
  %2 = alloca i32, align 4
  store i32 %0, ptr %2, align 4
  %3 = load i32, ptr %2, align 4
  %4 = zext i32 %3 to i64
  ret i64 %4
}

; Function Attrs: nounwind uwtable
define dso_local zeroext i1 @object_ownercheck(i32 noundef %0, i32 noundef %1, i32 noundef %2) #0 {
  %4 = alloca i1, align 1
  %5 = alloca i32, align 4
  %6 = alloca i32, align 4
  %7 = alloca i32, align 4
  %8 = alloca i32, align 4
  %9 = alloca i32, align 4
  %10 = alloca i32, align 4
  %11 = alloca ptr, align 8
  %12 = alloca ptr, align 8
  %13 = alloca [1 x %struct.ScanKeyData], align 16
  %14 = alloca ptr, align 8
  %15 = alloca ptr, align 8
  %16 = alloca i8, align 1
  store i32 %0, ptr %5, align 4
  store i32 %1, ptr %6, align 4
  store i32 %2, ptr %7, align 4
  call void @llvm.lifetime.start.p0(i64 4, ptr %8) #9
  call void @llvm.lifetime.start.p0(i64 4, ptr %9) #9
  %17 = load i32, ptr %7, align 4
  %18 = call zeroext i1 @superuser_arg(i32 noundef %17)
  br i1 %18, label %19, label %20

19:                                               ; preds = %3
  store i1 true, ptr %4, align 1
  store i32 1, ptr %10, align 4
  br label %105

20:                                               ; preds = %3
  %21 = load i32, ptr %5, align 4
  %22 = icmp eq i32 %21, 2613
  br i1 %22, label %23, label %24

23:                                               ; preds = %20
  store i32 2995, ptr %5, align 4
  br label %24

24:                                               ; preds = %23, %20
  %25 = load i32, ptr %5, align 4
  %26 = call i32 @get_object_catcache_oid(i32 noundef %25)
  store i32 %26, ptr %8, align 4
  %27 = load i32, ptr %8, align 4
  %28 = icmp ne i32 %27, -1
  br i1 %28, label %29, label %58

29:                                               ; preds = %24
  call void @llvm.lifetime.start.p0(i64 8, ptr %11) #9
  %30 = load i32, ptr %8, align 4
  %31 = load i32, ptr %6, align 4
  %32 = call i64 @ObjectIdGetDatum(i32 noundef %31)
  %33 = call ptr @SearchSysCache1(i32 noundef %30, i64 noundef %32)
  store ptr %33, ptr %11, align 8
  %34 = load ptr, ptr %11, align 8
  %35 = icmp ne ptr %34, null
  br i1 %35, label %50, label %36

36:                                               ; preds = %29
  br label %37

37:                                               ; preds = %36
  br i1 true, label %38, label %40

38:                                               ; preds = %37
  %39 = call zeroext i1 @errstart_cold(i32 noundef 21, ptr noundef null) #10
  br i1 %39, label %42, label %47

40:                                               ; preds = %37
  %41 = call zeroext i1 @errstart(i32 noundef 21, ptr noundef null)
  br i1 %41, label %42, label %47

42:                                               ; preds = %40, %38
  %43 = load i32, ptr %5, align 4
  %44 = call ptr @get_object_class_descr(i32 noundef %43)
  %45 = load i32, ptr %6, align 4
  %46 = call i32 (ptr, ...) @errmsg_internal(ptr noundef @.str.101, ptr noundef %44, i32 noundef %45)
  call void @errfinish(ptr noundef @.str.1, i32 noundef 4080, ptr noundef @__func__.object_ownercheck)
  br label %47

47:                                               ; preds = %42, %40, %38
  unreachable

48:                                               ; No predecessors!
  br label %49

49:                                               ; preds = %48
  br label %50

50:                                               ; preds = %49, %29
  %51 = load i32, ptr %8, align 4
  %52 = load ptr, ptr %11, align 8
  %53 = load i32, ptr %5, align 4
  %54 = call signext i16 @get_object_attnum_owner(i32 noundef %53)
  %55 = call i64 @SysCacheGetAttrNotNull(i32 noundef %51, ptr noundef %52, i16 noundef signext %54)
  %56 = call i32 @DatumGetObjectId(i64 noundef %55)
  store i32 %56, ptr %9, align 4
  %57 = load ptr, ptr %11, align 8
  call void @ReleaseSysCache(ptr noundef %57)
  call void @llvm.lifetime.end.p0(i64 8, ptr %11) #9
  br label %101

58:                                               ; preds = %24
  call void @llvm.lifetime.start.p0(i64 8, ptr %12) #9
  call void @llvm.lifetime.start.p0(i64 72, ptr %13) #9
  call void @llvm.lifetime.start.p0(i64 8, ptr %14) #9
  call void @llvm.lifetime.start.p0(i64 8, ptr %15) #9
  call void @llvm.lifetime.start.p0(i64 1, ptr %16) #9
  %59 = load i32, ptr %5, align 4
  %60 = call ptr @table_open(i32 noundef %59, i32 noundef 1)
  store ptr %60, ptr %12, align 8
  %61 = getelementptr inbounds [1 x %struct.ScanKeyData], ptr %13, i64 0, i64 0
  %62 = load i32, ptr %5, align 4
  %63 = call signext i16 @get_object_attnum_oid(i32 noundef %62)
  %64 = load i32, ptr %6, align 4
  %65 = call i64 @ObjectIdGetDatum(i32 noundef %64)
  call void @ScanKeyInit(ptr noundef %61, i16 noundef signext %63, i16 noundef zeroext 3, i32 noundef 184, i64 noundef %65)
  %66 = load ptr, ptr %12, align 8
  %67 = load i32, ptr %5, align 4
  %68 = call i32 @get_object_oid_index(i32 noundef %67)
  %69 = getelementptr inbounds [1 x %struct.ScanKeyData], ptr %13, i64 0, i64 0
  %70 = call ptr @systable_beginscan(ptr noundef %66, i32 noundef %68, i1 noundef zeroext true, ptr noundef null, i32 noundef 1, ptr noundef %69)
  store ptr %70, ptr %14, align 8
  %71 = load ptr, ptr %14, align 8
  %72 = call ptr @systable_getnext(ptr noundef %71)
  store ptr %72, ptr %15, align 8
  %73 = load ptr, ptr %15, align 8
  %74 = icmp ne ptr %73, null
  br i1 %74, label %89, label %75

75:                                               ; preds = %58
  br label %76

76:                                               ; preds = %75
  br i1 true, label %77, label %79

77:                                               ; preds = %76
  %78 = call zeroext i1 @errstart_cold(i32 noundef 21, ptr noundef null) #10
  br i1 %78, label %81, label %86

79:                                               ; preds = %76
  %80 = call zeroext i1 @errstart(i32 noundef 21, ptr noundef null)
  br i1 %80, label %81, label %86

81:                                               ; preds = %79, %77
  %82 = load i32, ptr %5, align 4
  %83 = call ptr @get_object_class_descr(i32 noundef %82)
  %84 = load i32, ptr %6, align 4
  %85 = call i32 (ptr, ...) @errmsg_internal(ptr noundef @.str.102, ptr noundef %83, i32 noundef %84)
  call void @errfinish(ptr noundef @.str.1, i32 noundef 4110, ptr noundef @__func__.object_ownercheck)
  br label %86

86:                                               ; preds = %81, %79, %77
  unreachable

87:                                               ; No predecessors!
  br label %88

88:                                               ; preds = %87
  br label %89

89:                                               ; preds = %88, %58
  %90 = load ptr, ptr %15, align 8
  %91 = load i32, ptr %5, align 4
  %92 = call signext i16 @get_object_attnum_owner(i32 noundef %91)
  %93 = sext i16 %92 to i32
  %94 = load ptr, ptr %12, align 8
  %95 = getelementptr inbounds nuw %struct.RelationData, ptr %94, i32 0, i32 14
  %96 = load ptr, ptr %95, align 8
  %97 = call i64 @heap_getattr(ptr noundef %90, i32 noundef %93, ptr noundef %96, ptr noundef %16)
  %98 = call i32 @DatumGetObjectId(i64 noundef %97)
  store i32 %98, ptr %9, align 4
  %99 = load ptr, ptr %14, align 8
  call void @systable_endscan(ptr noundef %99)
  %100 = load ptr, ptr %12, align 8
  call void @table_close(ptr noundef %100, i32 noundef 1)
  call void @llvm.lifetime.end.p0(i64 1, ptr %16) #9
  call void @llvm.lifetime.end.p0(i64 8, ptr %15) #9
  call void @llvm.lifetime.end.p0(i64 8, ptr %14) #9
  call void @llvm.lifetime.end.p0(i64 72, ptr %13) #9
  call void @llvm.lifetime.end.p0(i64 8, ptr %12) #9
  br label %101

101:                                              ; preds = %89, %50
  %102 = load i32, ptr %7, align 4
  %103 = load i32, ptr %9, align 4
  %104 = call zeroext i1 @has_privs_of_role(i32 noundef %102, i32 noundef %103)
  store i1 %104, ptr %4, align 1
  store i32 1, ptr %10, align 4
  br label %105

105:                                              ; preds = %101, %19
  call void @llvm.lifetime.end.p0(i64 4, ptr %9) #9
  call void @llvm.lifetime.end.p0(i64 4, ptr %8) #9
  %106 = load i1, ptr %4, align 1
  ret i1 %106
}