; Function Attrs: nounwind uwtable
define dso_local zeroext i1 @object_ownercheck(i32 noundef %0, i32 noundef %1, i32 noundef %2) local_unnamed_addr #0 {
  %4 = alloca [1 x %struct.ScanKeyData], align 16
  %5 = alloca i8, align 1
  %6 = tail call zeroext i1 @superuser_arg(i32 noundef %2) #9
  br i1 %6, label %39, label %7

7:                                                ; preds = %3
  %8 = icmp eq i32 %0, 2613
  %spec.store.select = select i1 %8, i32 2995, i32 %0
  %9 = tail call i32 @get_object_catcache_oid(i32 noundef %spec.store.select) #9
  %.not = icmp eq i32 %9, -1
  br i1 %.not, label %20, label %10

10:                                               ; preds = %7
  %11 = zext i32 %1 to i64
  %12 = tail call ptr @SearchSysCache1(i32 noundef %9, i64 noundef %11) #9
  %.not34 = icmp eq ptr %12, null
  br i1 %.not34, label %13, label %17

13:                                               ; preds = %10
  %14 = tail call zeroext i1 @errstart_cold(i32 noundef 21, ptr noundef null) #10
  tail call void @llvm.assume(i1 %14)
  %15 = tail call ptr @get_object_class_descr(i32 noundef %spec.store.select) #9
  %16 = tail call i32 (ptr, ...) @errmsg_internal(ptr noundef nonnull @.str.101, ptr noundef %15, i32 noundef %1) #9
  tail call void @errfinish(ptr noundef nonnull @.str.1, i32 noundef 4080, ptr noundef nonnull @__func__.object_ownercheck) #9
  unreachable

17:                                               ; preds = %10
  %18 = tail call signext i16 @get_object_attnum_owner(i32 noundef %spec.store.select) #9
  %19 = tail call i64 @SysCacheGetAttrNotNull(i32 noundef %9, ptr noundef nonnull %12, i16 noundef signext %18) #9
  tail call void @ReleaseSysCache(ptr noundef nonnull %12) #9
  br label %37

20:                                               ; preds = %7
  call void @llvm.lifetime.start.p0(i64 72, ptr nonnull %4) #9
  call void @llvm.lifetime.start.p0(i64 1, ptr nonnull %5) #9
  %21 = tail call ptr @table_open(i32 noundef %spec.store.select, i32 noundef 1) #9
  %22 = tail call signext i16 @get_object_attnum_oid(i32 noundef %spec.store.select) #9
  %23 = zext i32 %1 to i64
  call void @ScanKeyInit(ptr noundef nonnull %4, i16 noundef signext %22, i16 noundef zeroext 3, i32 noundef 184, i64 noundef %23) #9
  %24 = call i32 @get_object_oid_index(i32 noundef %spec.store.select) #9
  %25 = call ptr @systable_beginscan(ptr noundef %21, i32 noundef %24, i1 noundef zeroext true, ptr noundef null, i32 noundef 1, ptr noundef nonnull %4) #9
  %26 = call ptr @systable_getnext(ptr noundef %25) #9
  %.not33 = icmp eq ptr %26, null
  br i1 %.not33, label %27, label %31

27:                                               ; preds = %20
  %28 = call zeroext i1 @errstart_cold(i32 noundef 21, ptr noundef null) #10
  call void @llvm.assume(i1 %28)
  %29 = call ptr @get_object_class_descr(i32 noundef %spec.store.select) #9
  %30 = call i32 (ptr, ...) @errmsg_internal(ptr noundef nonnull @.str.102, ptr noundef %29, i32 noundef %1) #9
  call void @errfinish(ptr noundef nonnull @.str.1, i32 noundef 4110, ptr noundef nonnull @__func__.object_ownercheck) #9
  unreachable

31:                                               ; preds = %20
  %32 = call signext i16 @get_object_attnum_owner(i32 noundef %spec.store.select) #9
  %33 = sext i16 %32 to i32
  %34 = getelementptr inbounds nuw i8, ptr %21, i64 64
  %35 = load ptr, ptr %34, align 8
  %36 = call fastcc i64 @heap_getattr(ptr noundef %26, i32 noundef %33, ptr noundef %35, ptr noundef %5)
  call void @systable_endscan(ptr noundef %25) #9
  call void @table_close(ptr noundef %21, i32 noundef 1) #9
  call void @llvm.lifetime.end.p0(i64 1, ptr nonnull %5) #9
  call void @llvm.lifetime.end.p0(i64 72, ptr nonnull %4) #9
  br label %37

37:                                               ; preds = %31, %17
  %.029.in = phi i64 [ %19, %17 ], [ %36, %31 ]
  %.029 = trunc i64 %.029.in to i32
  %38 = call zeroext i1 @has_privs_of_role(i32 noundef %2, i32 noundef %.029) #9
  br label %39

39:                                               ; preds = %3, %37
  %.0 = phi i1 [ %38, %37 ], [ true, %3 ]
  ret i1 %.0
}